target datalayout = "e-m:e-p270:32:32-p271:32:32-p272:64:64-i64:64-i128:128-f80:128-n8:16:32:64-S128"
target triple = "x86_64-pc-linux-gnu"

%"class.nanobind::handle" = type { ptr }
%"class.std::function" = type { %"class.std::_Function_base", ptr }
%"class.std::_Function_base" = type { %"union.std::_Any_data", ptr }
%"union.std::_Any_data" = type { %"union.std::_Nocopy_types" }
%"union.std::_Nocopy_types" = type { { i64, i64 } }
%class.anon.522 = type { i8 }
%"struct.nanobind::detail::tuple.524" = type { %"struct.nanobind::detail::type_caster.525" }
%"struct.nanobind::detail::type_caster.525" = type { %"class.std::function" }

; Function Attrs: mustprogress nounwind optsize uwtable
define linkonce_odr void @_ZNSt14_Function_baseC2Ev(ptr noundef nonnull align 8 dereferenceable(24) %0) unnamed_addr #2 comdat align 2 {
  %2 = alloca ptr, align 8
  store ptr %0, ptr %2, align 8, !tbaa !782
  %3 = load ptr, ptr %2, align 8
  %4 = getelementptr inbounds nuw %"class.std::_Function_base", ptr %3, i32 0, i32 0
  store ptr null, ptr %4, align 8, !tbaa !57
  %5 = getelementptr inbounds nuw %"class.std::_Function_base", ptr %3, i32 0, i32 1
  store ptr null, ptr %5, align 8, !tbaa !767
  ret void
}

; Function Attrs: mustprogress nounwind optsize uwtable
define linkonce_odr void @_ZNSt8functionIFvvEEC2Ev(ptr noundef nonnull align 8 dereferenceable(32) %0) unnamed_addr #2 comdat align 2 {
  %2 = alloca ptr, align 8
  store ptr %0, ptr %2, align 8, !tbaa !21
  %3 = load ptr, ptr %2, align 8
  %4 = getelementptr inbounds i8, ptr %3, i64 0
  call void @llvm.memset.p0.i64(ptr align 8 %4, i8 0, i64 24, i1 false)
  call void @_ZNSt14_Function_baseC2Ev(ptr noundef nonnull align 8 dereferenceable(24) %3) #23
  %5 = getelementptr inbounds nuw %"class.std::function", ptr %3, i32 0, i32 1
  store ptr null, ptr %5, align 8, !tbaa !822
  ret void
}

; Function Attrs: inlinehint mustprogress nounwind optsize uwtable
define linkonce_odr hidden void @_ZN8nanobind6detail11type_casterISt8functionIFvvEEiED2Ev(ptr noundef nonnull align 8 dereferenceable(32) %0) unnamed_addr #11 comdat align 2 {
  %2 = alloca ptr, align 8
  store ptr %0, ptr %2, align 8, !tbaa !818
  %3 = load ptr, ptr %2, align 8
  %4 = getelementptr inbounds nuw %"struct.nanobind::detail::type_caster.525", ptr %3, i32 0, i32 0
  call void @_ZNSt14_Function_baseD2Ev(ptr noundef nonnull align 8 dereferenceable(32) %4) #23
  ret void
}

; Function Attrs: inlinehint mustprogress nounwind optsize uwtable
define linkonce_odr hidden void @_ZN8nanobind6detail11type_casterISt8functionIFvvEEiEC2Ev(ptr noundef nonnull align 8 dereferenceable(32) %0) unnamed_addr #11 comdat align 2 {
  %2 = alloca ptr, align 8
  store ptr %0, ptr %2, align 8, !tbaa !818
  %3 = load ptr, ptr %2, align 8
  %4 = getelementptr inbounds nuw %"struct.nanobind::detail::type_caster.525", ptr %3, i32 0, i32 0
  call void @_ZNSt8functionIFvvEEC2Ev(ptr noundef nonnull align 8 dereferenceable(32) %4) #23
  ret void
}

; Function Attrs: inlinehint mustprogress nounwind optsize uwtable
define linkonce_odr hidden void @_ZN8nanobind6detail5tupleIJNS0_11type_casterISt8functionIFvvEEiEEEED2Ev(ptr noundef nonnull align 8 dereferenceable(32) %0) unnamed_addr #11 comdat align 2 {
  %2 = alloca ptr, align 8
  store ptr %0, ptr %2, align 8, !tbaa !816
  %3 = load ptr, ptr %2, align 8
  %4 = getelementptr inbounds nuw %"struct.nanobind::detail::tuple.524", ptr %3, i32 0, i32 0
  call void @_ZN8nanobind6detail11type_casterISt8functionIFvvEEiED2Ev(ptr noundef nonnull align 8 dereferenceable(32) %4) #23
  ret void
}

; Function Attrs: mustprogress nounwind optsize uwtable
define linkonce_odr void @_ZNSt14_Function_baseD2Ev(ptr noundef nonnull align 8 dereferenceable(24) %0) unnamed_addr #2 comdat align 2 personality ptr @__gxx_personality_v0 {
  %2 = alloca ptr, align 8
  store ptr %0, ptr %2, align 8, !tbaa !782
  %3 = load ptr, ptr %2, align 8
  %4 = getelementptr inbounds nuw %"class.std::_Function_base", ptr %3, i32 0, i32 1
  %5 = load ptr, ptr %4, align 8, !tbaa !767
  %6 = icmp ne ptr %5, null
  br i1 %6, label %7, label %14

7:                                                ; preds = %1
  %8 = getelementptr inbounds nuw %"class.std::_Function_base", ptr %3, i32 0, i32 1
  %9 = load ptr, ptr %8, align 8, !tbaa !767
  %10 = getelementptr inbounds nuw %"class.std::_Function_base", ptr %3, i32 0, i32 0
  %11 = getelementptr inbounds nuw %"class.std::_Function_base", ptr %3, i32 0, i32 0
  %12 = invoke noundef zeroext i1 %9(ptr noundef nonnull align 8 dereferenceable(16) %10, ptr noundef nonnull align 8 dereferenceable(16) %11, i32 noundef 3) #22
          to label %13 unwind label %15

13:                                               ; preds = %7
  br label %14

14:                                               ; preds = %13, %1
  ret void

15:                                               ; preds = %7
  %16 = landingpad { ptr, i32 }
          catch ptr null
  %17 = extractvalue { ptr, i32 } %16, 0
  call void @__clang_call_terminate(ptr %17) #26
  unreachable
}

; Function Attrs: alwaysinline mustprogress nounwind optsize uwtable
define linkonce_odr hidden noundef ptr @_ZNK8nanobind6handle3ptrEv(ptr noundef nonnull align 8 dereferenceable(8) %0) #3 comdat align 2 {
  %2 = alloca ptr, align 8
  store ptr %0, ptr %2, align 8, !tbaa !17
  %3 = load ptr, ptr %2, align 8
  %4 = getelementptr inbounds nuw %"class.nanobind::handle", ptr %3, i32 0, i32 0
  %5 = load ptr, ptr %4, align 8, !tbaa !19
  ret ptr %5
}

; Function Attrs: inlinehint mustprogress optsize uwtable
define internal void @"_ZZL26nanobind_init_test_stl_extRN8nanobind7module_EENK4$_37clERSt8functionIFvvEE"(ptr dead_on_unwind noalias writable sret(%"class.std::function") align 8 %0, ptr noundef nonnull align 1 dereferenceable(1) %1, ptr noundef nonnull align 8 dereferenceable(32) %2) #10 align 2 {
  %4 = alloca ptr, align 8
  %5 = alloca ptr, align 8
  %6 = alloca ptr, align 8
  store ptr %0, ptr %4, align 8
  store ptr %1, ptr %5, align 8, !tbaa !8
  store ptr %2, ptr %6, align 8, !tbaa !21
  %7 = load ptr, ptr %6, align 8, !tbaa !21
  call void @_ZNSt8functionIFvvEEC2ERKS1_(ptr noundef nonnull align 8 dereferenceable(32) %0, ptr noundef nonnull align 8 dereferenceable(32) %7) #22
  ret void
}

; Function Attrs: mustprogress nounwind optsize uwtable
define linkonce_odr hidden noundef nonnull align 8 dereferenceable(32) ptr @_ZN8nanobind6detail11type_casterISt8functionIFvvEEiEcvRS4_Ev(ptr noundef nonnull align 8 dereferenceable(32) %0) #2 comdat align 2 {
  %2 = alloca ptr, align 8
  store ptr %0, ptr %2, align 8, !tbaa !818
  %3 = load ptr, ptr %2, align 8
  %4 = getelementptr inbounds nuw %"struct.nanobind::detail::type_caster.525", ptr %3, i32 0, i32 0
  ret ptr %4
}

; Function Attrs: alwaysinline mustprogress nounwind optsize uwtable
define linkonce_odr hidden void @_ZN8nanobind6handleC2EPK7_object(ptr noundef nonnull align 8 dereferenceable(8) %0, ptr noundef %1) unnamed_addr #3 comdat align 2 {
  %3 = alloca ptr, align 8
  %4 = alloca ptr, align 8
  store ptr %0, ptr %3, align 8, !tbaa !17
  store ptr %1, ptr %4, align 8, !tbaa !3
  %5 = load ptr, ptr %3, align 8
  %6 = getelementptr inbounds nuw %"class.nanobind::handle", ptr %5, i32 0, i32 0
  %7 = load ptr, ptr %4, align 8, !tbaa !3
  store ptr %7, ptr %6, align 8, !tbaa !19
  ret void
}

; Function Attrs: alwaysinline mustprogress nounwind optsize uwtable
define linkonce_odr hidden noundef nonnull align 8 dereferenceable(32) ptr @_ZN8nanobind6detail5tupleIJNS0_11type_casterISt8functionIFvvEEiEEEE3getILm0EEERDav(ptr noundef nonnull align 8 dereferenceable(32) %0) #3 comdat align 2 {
  %2 = alloca ptr, align 8
  store ptr %0, ptr %2, align 8, !tbaa !816
  %3 = load ptr, ptr %2, align 8
  %4 = getelementptr inbounds nuw %"struct.nanobind::detail::tuple.524", ptr %3, i32 0, i32 0
  ret ptr %4
}

; Function Attrs: mustprogress nounwind optsize uwtable
define linkonce_odr hidden void @_ZN8nanobind6detail5tupleIJNS0_11type_casterISt8functionIFvvEEiEEEEC2Ev(ptr noundef nonnull align 8 dereferenceable(32) %0) unnamed_addr #2 comdat align 2 {
  %2 = alloca ptr, align 8
  store ptr %0, ptr %2, align 8, !tbaa !816
  %3 = load ptr, ptr %2, align 8
  %4 = getelementptr inbounds nuw %"struct.nanobind::detail::tuple.524", ptr %3, i32 0, i32 0
  call void @_ZN8nanobind6detail11type_casterISt8functionIFvvEEiEC2Ev(ptr noundef nonnull align 8 dereferenceable(32) %4) #23
  ret void
}

; Function Attrs: alwaysinline mustprogress optsize uwtable
define internal noundef ptr @"_ZZN8nanobind6detail11func_createILb0ELb1EZL26nanobind_init_test_stl_extRNS_7module_EE4$_37St8functionIFvvEEJRS7_EJLm0EEJNS_5scopeENS_4nameEEEEP7_objectOT1_PFT2_DpT3_ESt16integer_sequenceImJXspT4_EEEDpRKT5_ENKUlPvPSC_PhNS_9rv_policyEPNS0_12cleanup_listEE_clESQ_SR_SS_ST_SV_"(ptr noundef nonnull align 1 dereferenceable(1) %0, ptr noundef %1, ptr noundef %2, ptr noundef %3, i32 noundef %4, ptr noundef %5) #7 align 2 personality ptr @__gxx_personality_v0 {
  %7 = alloca ptr, align 8
  %8 = alloca ptr, align 8
  %9 = alloca ptr, align 8
  %10 = alloca ptr, align 8
  %11 = alloca ptr, align 8
  %12 = alloca i32, align 4
  %13 = alloca ptr, align 8
  %14 = alloca ptr, align 8
  %15 = alloca %"struct.nanobind::detail::tuple.524", align 8
  %16 = alloca ptr, align 8
  %17 = alloca i32, align 4
  %18 = alloca %"class.nanobind::handle", align 8
  %19 = alloca i32, align 4
  %20 = alloca ptr, align 8
  %21 = alloca %"class.nanobind::handle", align 8
  %22 = alloca %"class.std::function", align 8
  store ptr %0, ptr %8, align 8, !tbaa !8
  store ptr %1, ptr %9, align 8, !tbaa !8
  store ptr %2, ptr %10, align 8, !tbaa !165
  store ptr %3, ptr %11, align 8, !tbaa !34
  store i32 %4, ptr %12, align 4, !tbaa !23
  store ptr %5, ptr %13, align 8, !tbaa !167
  call void @llvm.lifetime.start.p0(i64 8, ptr %14) #21
  %23 = load ptr, ptr %9, align 8, !tbaa !8
  store ptr %23, ptr %14, align 8, !tbaa !812
  call void @llvm.lifetime.start.p0(i64 32, ptr %15) #21
  call void @_ZN8nanobind6detail5tupleIJNS0_11type_casterISt8functionIFvvEEiEEEEC2Ev(ptr noundef nonnull align 8 dereferenceable(32) %15) #23
  %24 = invoke noundef nonnull align 8 dereferenceable(32) ptr @_ZN8nanobind6detail5tupleIJNS0_11type_casterISt8functionIFvvEEiEEEE3getILm0EEERDav(ptr noundef nonnull align 8 dereferenceable(32) %15) #22
          to label %25 unwind label %38

25:                                               ; preds = %6
  %26 = load ptr, ptr %10, align 8, !tbaa !165
  %27 = getelementptr inbounds nuw ptr, ptr %26, i64 0
  %28 = load ptr, ptr %27, align 8, !tbaa !3
  invoke void @_ZN8nanobind6handleC2EPK7_object(ptr noundef nonnull align 8 dereferenceable(8) %18, ptr noundef %28) #22
          to label %29 unwind label %38

29:                                               ; preds = %25
  %30 = load ptr, ptr %11, align 8, !tbaa !34
  %31 = getelementptr inbounds nuw i8, ptr %30, i64 0
  %32 = load i8, ptr %31, align 1, !tbaa !57
  %33 = load ptr, ptr %13, align 8, !tbaa !167
  %34 = getelementptr inbounds nuw %"class.nanobind::handle", ptr %18, i32 0, i32 0
  %35 = load ptr, ptr %34, align 8
  %36 = call noundef zeroext i1 @_ZN8nanobind6detail11type_casterISt8functionIFvvEEiE11from_pythonENS_6handleEhPNS0_12cleanup_listE(ptr noundef nonnull align 8 dereferenceable(32) %24, ptr %35, i8 noundef zeroext %32, ptr noundef %33) #23
  br i1 %36, label %42, label %37

37:                                               ; preds = %29
  store ptr inttoptr (i64 1 to ptr), ptr %7, align 8
  store i32 1, ptr %19, align 4
  br label %59

38:                                               ; preds = %25, %6
  %39 = landingpad { ptr, i32 }
          cleanup
  %40 = extractvalue { ptr, i32 } %39, 0
  store ptr %40, ptr %16, align 8
  %41 = extractvalue { ptr, i32 } %39, 1
  store i32 %41, ptr %17, align 4
  br label %61

42:                                               ; preds = %29
  call void @llvm.lifetime.start.p0(i64 8, ptr %20) #21
  call void @llvm.lifetime.start.p0(i64 8, ptr %21) #21
  call void @llvm.lifetime.start.p0(i64 32, ptr %22) #21
  %43 = load ptr, ptr %14, align 8, !tbaa !812
  %44 = invoke noundef nonnull align 8 dereferenceable(32) ptr @_ZN8nanobind6detail5tupleIJNS0_11type_casterISt8functionIFvvEEiEEEE3getILm0EEERDav(ptr noundef nonnull align 8 dereferenceable(32) %15) #22
          to label %45 unwind label %55

45:                                               ; preds = %42
  %46 = invoke noundef nonnull align 8 dereferenceable(32) ptr @_ZN8nanobind6detail11type_casterISt8functionIFvvEEiEcvRS4_Ev(ptr noundef nonnull align 8 dereferenceable(32) %44) #22
          to label %47 unwind label %55

47:                                               ; preds = %45
  invoke void @"_ZZL26nanobind_init_test_stl_extRN8nanobind7module_EENK4$_37clERSt8functionIFvvEE"(ptr dead_on_unwind writable sret(%"class.std::function") align 8 %22, ptr noundef nonnull align 1 dereferenceable(1) %43, ptr noundef nonnull align 8 dereferenceable(32) %46) #22
          to label %48 unwind label %55

48:                                               ; preds = %47
  %49 = load i32, ptr %12, align 4, !tbaa !23
  %50 = load ptr, ptr %13, align 8, !tbaa !167
  %51 = call ptr @_ZN8nanobind6detail11type_casterISt8functionIFvvEEiE8from_cppERKS4_NS_9rv_policyEPNS0_12cleanup_listE(ptr noundef nonnull align 8 dereferenceable(32) %22, i32 noundef %49, ptr noundef %50) #23
  %52 = getelementptr inbounds nuw %"class.nanobind::handle", ptr %21, i32 0, i32 0
  store ptr %51, ptr %52, align 8
  %53 = call noundef ptr @_ZNK8nanobind6handle3ptrEv(ptr noundef nonnull align 8 dereferenceable(8) %21) #22
  store ptr %53, ptr %20, align 8, !tbaa !3
  call void @_ZNSt14_Function_baseD2Ev(ptr noundef nonnull align 8 dereferenceable(32) %22) #23
  call void @llvm.lifetime.end.p0(i64 32, ptr %22) #21
  call void @llvm.lifetime.end.p0(i64 8, ptr %21) #21
  %54 = load ptr, ptr %20, align 8, !tbaa !3
  store ptr %54, ptr %7, align 8
  store i32 1, ptr %19, align 4
  call void @llvm.lifetime.end.p0(i64 8, ptr %20) #21
  br label %59

55:                                               ; preds = %47, %45, %42
  %56 = landingpad { ptr, i32 }
          cleanup
  %57 = extractvalue { ptr, i32 } %56, 0
  store ptr %57, ptr %16, align 8
  %58 = extractvalue { ptr, i32 } %56, 1
  store i32 %58, ptr %17, align 4
  call void @llvm.lifetime.end.p0(i64 32, ptr %22) #21
  call void @llvm.lifetime.end.p0(i64 8, ptr %21) #21
  call void @llvm.lifetime.end.p0(i64 8, ptr %20) #21
  br label %61

59:                                               ; preds = %48, %37
  call void @_ZN8nanobind6detail5tupleIJNS0_11type_casterISt8functionIFvvEEiEEEED2Ev(ptr noundef nonnull align 8 dereferenceable(32) %15) #23
  call void @llvm.lifetime.end.p0(i64 32, ptr %15) #21
  call void @llvm.lifetime.end.p0(i64 8, ptr %14) #21
  %60 = load ptr, ptr %7, align 8
  ret ptr %60

61:                                               ; preds = %55, %38
  call void @_ZN8nanobind6detail5tupleIJNS0_11type_casterISt8functionIFvvEEiEEEED2Ev(ptr noundef nonnull align 8 dereferenceable(32) %15) #23
  call void @llvm.lifetime.end.p0(i64 32, ptr %15) #21
  call void @llvm.lifetime.end.p0(i64 8, ptr %14) #21
  br label %62

62:                                               ; preds = %61
  %63 = load ptr, ptr %16, align 8
  %64 = load i32, ptr %17, align 4
  %65 = insertvalue { ptr, i32 } poison, ptr %63, 0
  %66 = insertvalue { ptr, i32 } %65, i32 %64, 1
  resume { ptr, i32 } %66
}

; Function Attrs: inlinehint mustprogress optsize uwtable
define internal noundef ptr @"_ZZN8nanobind6detail11func_createILb0ELb1EZL26nanobind_init_test_stl_extRNS_7module_EE4$_37St8functionIFvvEEJRS7_EJLm0EEJNS_5scopeENS_4nameEEEEP7_objectOT1_PFT2_DpT3_ESt16integer_sequenceImJXspT4_EEEDpRKT5_ENUlPvPSC_PhNS_9rv_policyEPNS0_12cleanup_listEE_8__invokeESQ_SR_SS_ST_SV_"(ptr noundef %0, ptr noundef %1, ptr noundef %2, i32 noundef %3, ptr noundef %4) #10 align 2 {
  %6 = alloca ptr, align 8
  %7 = alloca ptr, align 8
  %8 = alloca ptr, align 8
  %9 = alloca i32, align 4
  %10 = alloca ptr, align 8
  %11 = alloca %class.anon.522, align 1
  store ptr %0, ptr %6, align 8, !tbaa !8
  store ptr %1, ptr %7, align 8, !tbaa !165
  store ptr %2, ptr %8, align 8, !tbaa !34
  store i32 %3, ptr %9, align 4, !tbaa !23
  store ptr %4, ptr %10, align 8, !tbaa !167
  %12 = load ptr, ptr %6, align 8, !tbaa !8
  %13 = load ptr, ptr %7, align 8, !tbaa !165
  %14 = load ptr, ptr %8, align 8, !tbaa !34
  %15 = load i32, ptr %9, align 4, !tbaa !23
  %16 = load ptr, ptr %10, align 8, !tbaa !167
  %17 = call noundef ptr @"_ZZN8nanobind6detail11func_createILb0ELb1EZL26nanobind_init_test_stl_extRNS_7module_EE4$_37St8functionIFvvEEJRS7_EJLm0EEJNS_5scopeENS_4nameEEEEP7_objectOT1_PFT2_DpT3_ESt16integer_sequenceImJXspT4_EEEDpRKT5_ENKUlPvPSC_PhNS_9rv_policyEPNS0_12cleanup_listEE_clESQ_SR_SS_ST_SV_"(ptr noundef nonnull align 1 dereferenceable(1) %11, ptr noundef %12, ptr noundef %13, ptr noundef %14, i32 noundef %15, ptr noundef %16) #22
  ret ptr %17
}