; Function Attrs: inlinehint mustprogress optsize uwtable
define internal noundef ptr @"_ZZN8nanobind6detail11func_createILb0ELb1EZL26nanobind_init_test_stl_extRNS_7module_EE4$_37St8functionIFvvEEJRS7_EJLm0EEJNS_5scopeENS_4nameEEEEP7_objectOT1_PFT2_DpT3_ESt16integer_sequenceImJXspT4_EEEDpRKT5_ENUlPvPSC_PhNS_9rv_policyEPNS0_12cleanup_listEE_8__invokeESQ_SR_SS_ST_SV_"(ptr readnone captures(none) %0, ptr noundef readonly captures(none) %1, ptr noundef readonly captures(none) %2, i32 noundef %3, ptr noundef %4) #11 align 2 personality ptr @__gxx_personality_v0 {
  %6 = alloca %"struct.nanobind::detail::tuple.524", align 8
  %7 = alloca %"class.std::function", align 8
  call void @llvm.lifetime.start.p0(i64 32, ptr nonnull %6) #28
  call void @llvm.memset.p0.i64(ptr noundef nonnull align 8 dereferenceable(32) %6, i8 0, i64 32, i1 false)
  %8 = load ptr, ptr %1, align 8, !tbaa !131
  %9 = load i8, ptr %2, align 1, !tbaa !44
  %10 = call noundef zeroext i1 @_ZN8nanobind6detail11type_casterISt8functionIFvvEEiE11from_pythonENS_6handleEhPNS0_12cleanup_listE(ptr noundef nonnull align 8 dereferenceable(32) %6, ptr %8, i8 noundef zeroext %9, ptr noundef %4) #27
  br i1 %10, label %11, label %"_ZZN8nanobind6detail11func_createILb0ELb1EZL26nanobind_init_test_stl_extRNS_7module_EE4$_37St8functionIFvvEEJRS7_EJLm0EEJNS_5scopeENS_4nameEEEEP7_objectOT1_PFT2_DpT3_ESt16integer_sequenceImJXspT4_EEEDpRKT5_ENKUlPvPSC_PhNS_9rv_policyEPNS0_12cleanup_listEE_clESQ_SR_SS_ST_SV_.exit"

11:                                               ; preds = %5
  call void @llvm.lifetime.start.p0(i64 32, ptr nonnull %7) #28
  invoke void @_ZNSt8functionIFvvEEC2ERKS1_(ptr noundef nonnull align 8 dereferenceable(32) %7, ptr noundef nonnull align 8 dereferenceable(32) %6) #30
          to label %"_ZZL26nanobind_init_test_stl_extRN8nanobind7module_EENK4$_37clERSt8functionIFvvEE.exit" unwind label %20

"_ZZL26nanobind_init_test_stl_extRN8nanobind7module_EENK4$_37clERSt8functionIFvvEE.exit": ; preds = %11
  %12 = call ptr @_ZN8nanobind6detail11type_casterISt8functionIFvvEEiE8from_cppERKS4_NS_9rv_policyEPNS0_12cleanup_listE(ptr noundef nonnull align 8 dereferenceable(32) %7, i32 noundef %3, ptr noundef %4) #27
  %13 = getelementptr inbounds nuw i8, ptr %7, i64 16
  %14 = load ptr, ptr %13, align 8, !tbaa !344
  %.not.i = icmp eq ptr %14, null
  br i1 %.not.i, label %_ZNSt14_Function_baseD2Ev.exit, label %15

15:                                               ; preds = %"_ZZL26nanobind_init_test_stl_extRN8nanobind7module_EENK4$_37clERSt8functionIFvvEE.exit"
  %16 = invoke noundef zeroext i1 %14(ptr noundef nonnull align 8 dereferenceable(32) %7, ptr noundef nonnull align 8 dereferenceable(32) %7, i32 noundef 3) #30
          to label %_ZNSt14_Function_baseD2Ev.exit unwind label %17

17:                                               ; preds = %15
  %18 = landingpad { ptr, i32 }
          catch ptr null
  %19 = extractvalue { ptr, i32 } %18, 0
  call void @__clang_call_terminate(ptr %19) #32
  unreachable

_ZNSt14_Function_baseD2Ev.exit:                   ; preds = %"_ZZL26nanobind_init_test_stl_extRN8nanobind7module_EENK4$_37clERSt8functionIFvvEE.exit", %15
  call void @llvm.lifetime.end.p0(i64 32, ptr nonnull %7) #28
  br label %"_ZZN8nanobind6detail11func_createILb0ELb1EZL26nanobind_init_test_stl_extRNS_7module_EE4$_37St8functionIFvvEEJRS7_EJLm0EEJNS_5scopeENS_4nameEEEEP7_objectOT1_PFT2_DpT3_ESt16integer_sequenceImJXspT4_EEEDpRKT5_ENKUlPvPSC_PhNS_9rv_policyEPNS0_12cleanup_listEE_clESQ_SR_SS_ST_SV_.exit"

20:                                               ; preds = %11
  %21 = landingpad { ptr, i32 }
          cleanup
  call void @llvm.lifetime.end.p0(i64 32, ptr nonnull %7) #28
  %22 = getelementptr inbounds nuw i8, ptr %6, i64 16
  %23 = load ptr, ptr %22, align 8, !tbaa !344
  %.not.i.i.i = icmp eq ptr %23, null
  br i1 %.not.i.i.i, label %_ZN8nanobind6detail5tupleIJNS0_11type_casterISt8functionIFvvEEiEEEED2Ev.exit, label %24

24:                                               ; preds = %20
  %25 = invoke noundef zeroext i1 %23(ptr noundef nonnull align 8 dereferenceable(32) %6, ptr noundef nonnull align 8 dereferenceable(32) %6, i32 noundef 3) #30
          to label %_ZN8nanobind6detail5tupleIJNS0_11type_casterISt8functionIFvvEEiEEEED2Ev.exit unwind label %26

26:                                               ; preds = %24
  %27 = landingpad { ptr, i32 }
          catch ptr null
  %28 = extractvalue { ptr, i32 } %27, 0
  call void @__clang_call_terminate(ptr %28) #32
  unreachable

_ZN8nanobind6detail5tupleIJNS0_11type_casterISt8functionIFvvEEiEEEED2Ev.exit: ; preds = %20, %24
  call void @llvm.lifetime.end.p0(i64 32, ptr nonnull %6) #28
  resume { ptr, i32 } %21

"_ZZN8nanobind6detail11func_createILb0ELb1EZL26nanobind_init_test_stl_extRNS_7module_EE4$_37St8functionIFvvEEJRS7_EJLm0EEJNS_5scopeENS_4nameEEEEP7_objectOT1_PFT2_DpT3_ESt16integer_sequenceImJXspT4_EEEDpRKT5_ENKUlPvPSC_PhNS_9rv_policyEPNS0_12cleanup_listEE_clESQ_SR_SS_ST_SV_.exit": ; preds = %5, %_ZNSt14_Function_baseD2Ev.exit
  %.0.i = phi ptr [ %12, %_ZNSt14_Function_baseD2Ev.exit ], [ inttoptr (i64 1 to ptr), %5 ]
  %29 = getelementptr inbounds nuw i8, ptr %6, i64 16
  %30 = load ptr, ptr %29, align 8, !tbaa !344
  %.not.i.i.i4 = icmp eq ptr %30, null
  br i1 %.not.i.i.i4, label %_ZN8nanobind6detail5tupleIJNS0_11type_casterISt8functionIFvvEEiEEEED2Ev.exit5, label %31

31:                                               ; preds = %"_ZZN8nanobind6detail11func_createILb0ELb1EZL26nanobind_init_test_stl_extRNS_7module_EE4$_37St8functionIFvvEEJRS7_EJLm0EEJNS_5scopeENS_4nameEEEEP7_objectOT1_PFT2_DpT3_ESt16integer_sequenceImJXspT4_EEEDpRKT5_ENKUlPvPSC_PhNS_9rv_policyEPNS0_12cleanup_listEE_clESQ_SR_SS_ST_SV_.exit"
  %32 = invoke noundef zeroext i1 %30(ptr noundef nonnull align 8 dereferenceable(32) %6, ptr noundef nonnull align 8 dereferenceable(32) %6, i32 noundef 3) #30
          to label %_ZN8nanobind6detail5tupleIJNS0_11type_casterISt8functionIFvvEEiEEEED2Ev.exit5 unwind label %33

33:                                               ; preds = %31
  %34 = landingpad { ptr, i32 }
          catch ptr null
  %35 = extractvalue { ptr, i32 } %34, 0
  call void @__clang_call_terminate(ptr %35) #32
  unreachable

_ZN8nanobind6detail5tupleIJNS0_11type_casterISt8functionIFvvEEiEEEED2Ev.exit5: ; preds = %"_ZZN8nanobind6detail11func_createILb0ELb1EZL26nanobind_init_test_stl_extRNS_7module_EE4$_37St8functionIFvvEEJRS7_EJLm0EEJNS_5scopeENS_4nameEEEEP7_objectOT1_PFT2_DpT3_ESt16integer_sequenceImJXspT4_EEEDpRKT5_ENKUlPvPSC_PhNS_9rv_policyEPNS0_12cleanup_listEE_clESQ_SR_SS_ST_SV_.exit", %31
  call void @llvm.lifetime.end.p0(i64 32, ptr nonnull %6) #28
  ret ptr %.0.i
}